target datalayout = "e-m:e-p270:32:32-p271:32:32-p272:64:64-i64:64-i128:128-f80:128-n8:16:32:64-S128"
target triple = "x86_64-pc-linux-gnu"

%struct.PathClauseUsage = type { ptr, ptr, ptr, ptr, i8 }

; Function Attrs: nounwind uwtable
define internal i32 @path_usage_comparator(ptr noundef %0, ptr noundef %1) #0 {
  %3 = alloca i32, align 4
  %4 = alloca ptr, align 8
  %5 = alloca ptr, align 8
  %6 = alloca ptr, align 8
  %7 = alloca ptr, align 8
  %8 = alloca double, align 8
  %9 = alloca double, align 8
  %10 = alloca double, align 8
  %11 = alloca double, align 8
  %12 = alloca i32, align 4
  store ptr %0, ptr %4, align 8
  store ptr %1, ptr %5, align 8
  call void @llvm.lifetime.start.p0(i64 8, ptr %6) #7
  %13 = load ptr, ptr %4, align 8
  %14 = load ptr, ptr %13, align 8
  store ptr %14, ptr %6, align 8
  call void @llvm.lifetime.start.p0(i64 8, ptr %7) #7
  %15 = load ptr, ptr %5, align 8
  %16 = load ptr, ptr %15, align 8
  store ptr %16, ptr %7, align 8
  call void @llvm.lifetime.start.p0(i64 8, ptr %8) #7
  call void @llvm.lifetime.start.p0(i64 8, ptr %9) #7
  call void @llvm.lifetime.start.p0(i64 8, ptr %10) #7
  call void @llvm.lifetime.start.p0(i64 8, ptr %11) #7
  %17 = load ptr, ptr %6, align 8
  %18 = getelementptr inbounds nuw %struct.PathClauseUsage, ptr %17, i32 0, i32 0
  %19 = load ptr, ptr %18, align 8
  call void @cost_bitmap_tree_node(ptr noundef %19, ptr noundef %8, ptr noundef %10)
  %20 = load ptr, ptr %7, align 8
  %21 = getelementptr inbounds nuw %struct.PathClauseUsage, ptr %20, i32 0, i32 0
  %22 = load ptr, ptr %21, align 8
  call void @cost_bitmap_tree_node(ptr noundef %22, ptr noundef %9, ptr noundef %11)
  %23 = load double, ptr %8, align 8
  %24 = load double, ptr %9, align 8
  %25 = fcmp olt double %23, %24
  br i1 %25, label %26, label %27

26:                                               ; preds = %2
  store i32 -1, ptr %3, align 4
  store i32 1, ptr %12, align 4
  br label %43

27:                                               ; preds = %2
  %28 = load double, ptr %8, align 8
  %29 = load double, ptr %9, align 8
  %30 = fcmp ogt double %28, %29
  br i1 %30, label %31, label %32

31:                                               ; preds = %27
  store i32 1, ptr %3, align 4
  store i32 1, ptr %12, align 4
  br label %43

32:                                               ; preds = %27
  %33 = load double, ptr %10, align 8
  %34 = load double, ptr %11, align 8
  %35 = fcmp olt double %33, %34
  br i1 %35, label %36, label %37

36:                                               ; preds = %32
  store i32 -1, ptr %3, align 4
  store i32 1, ptr %12, align 4
  br label %43

37:                                               ; preds = %32
  %38 = load double, ptr %10, align 8
  %39 = load double, ptr %11, align 8
  %40 = fcmp ogt double %38, %39
  br i1 %40, label %41, label %42

41:                                               ; preds = %37
  store i32 1, ptr %3, align 4
  store i32 1, ptr %12, align 4
  br label %43

42:                                               ; preds = %37
  store i32 0, ptr %3, align 4
  store i32 1, ptr %12, align 4
  br label %43

43:                                               ; preds = %42, %41, %36, %31, %26
  call void @llvm.lifetime.end.p0(i64 8, ptr %11) #7
  call void @llvm.lifetime.end.p0(i64 8, ptr %10) #7
  call void @llvm.lifetime.end.p0(i64 8, ptr %9) #7
  call void @llvm.lifetime.end.p0(i64 8, ptr %8) #7
  call void @llvm.lifetime.end.p0(i64 8, ptr %7) #7
  call void @llvm.lifetime.end.p0(i64 8, ptr %6) #7
  %44 = load i32, ptr %3, align 4
  ret i32 %44
}