; Function Attrs: nounwind uwtable
define internal range(i32 -1, 2) i32 @path_usage_comparator(ptr noundef readonly captures(none) %0, ptr noundef readonly captures(none) %1) #0 {
  %3 = alloca double, align 8
  %4 = alloca double, align 8
  %5 = alloca double, align 8
  %6 = alloca double, align 8
  %7 = load ptr, ptr %0, align 8
  %8 = load ptr, ptr %1, align 8
  call void @llvm.lifetime.start.p0(i64 8, ptr nonnull %3) #8
  call void @llvm.lifetime.start.p0(i64 8, ptr nonnull %4) #8
  call void @llvm.lifetime.start.p0(i64 8, ptr nonnull %5) #8
  call void @llvm.lifetime.start.p0(i64 8, ptr nonnull %6) #8
  %9 = load ptr, ptr %7, align 8
  call void @cost_bitmap_tree_node(ptr noundef %9, ptr noundef nonnull %3, ptr noundef nonnull %5) #8
  %10 = load ptr, ptr %8, align 8
  call void @cost_bitmap_tree_node(ptr noundef %10, ptr noundef nonnull %4, ptr noundef nonnull %6) #8
  %11 = load double, ptr %3, align 8
  %12 = load double, ptr %4, align 8
  %13 = fcmp olt double %11, %12
  br i1 %13, label %22, label %14

14:                                               ; preds = %2
  %15 = fcmp ogt double %11, %12
  br i1 %15, label %22, label %16

16:                                               ; preds = %14
  %17 = load double, ptr %5, align 8
  %18 = load double, ptr %6, align 8
  %19 = fcmp olt double %17, %18
  br i1 %19, label %22, label %20

20:                                               ; preds = %16
  %21 = fcmp ogt double %17, %18
  %. = zext i1 %21 to i32
  br label %22

22:                                               ; preds = %20, %16, %14, %2
  %.0 = phi i32 [ -1, %2 ], [ 1, %14 ], [ -1, %16 ], [ %., %20 ]
  call void @llvm.lifetime.end.p0(i64 8, ptr nonnull %6) #8
  call void @llvm.lifetime.end.p0(i64 8, ptr nonnull %5) #8
  call void @llvm.lifetime.end.p0(i64 8, ptr nonnull %4) #8
  call void @llvm.lifetime.end.p0(i64 8, ptr nonnull %3) #8
  ret i32 %.0
}